target datalayout = "e-m:e-p270:32:32-p271:32:32-p272:64:64-i64:64-i128:128-f80:128-n8:16:32:64-S128"
target triple = "x86_64-pc-linux-gnu"

%"class.std::vector.3" = type { %"struct.std::_Vector_base.4" }
%"struct.std::_Vector_base.4" = type { %"struct.std::_Vector_base<float, std::allocator<float>>::_Vector_impl" }
%"struct.std::_Vector_base<float, std::allocator<float>>::_Vector_impl" = type { %"struct.std::_Vector_base<float, std::allocator<float>>::_Vector_impl_data" }
%"struct.std::_Vector_base<float, std::allocator<float>>::_Vector_impl_data" = type { ptr, ptr, ptr }
%"struct.OpenColorIO_v2_5dev::GradingBSplineCurveImpl::KnotsCoefs" = type { i8, %"class.std::vector.15", %"class.std::vector.15", %"class.std::vector.3", %"class.std::vector.3" }
%"class.std::vector.15" = type { %"struct.std::_Vector_base.16" }
%"struct.std::_Vector_base.16" = type { %"struct.std::_Vector_base<int, std::allocator<int>>::_Vector_impl" }
%"struct.std::_Vector_base<int, std::allocator<int>>::_Vector_impl" = type { %"struct.std::_Vector_base<int, std::allocator<int>>::_Vector_impl_data" }
%"struct.std::_Vector_base<int, std::allocator<int>>::_Vector_impl_data" = type { ptr, ptr, ptr }

; Function Attrs: mustprogress nounwind uwtable
define linkonce_odr hidden noundef nonnull align 4 dereferenceable(4) ptr @_ZNKSt6vectorIfSaIfEEixEm(ptr noundef nonnull align 8 dereferenceable(24) %0, i64 noundef %1) #3 comdat align 2 {
  %3 = alloca ptr, align 8
  %4 = alloca i64, align 8
  store ptr %0, ptr %3, align 8, !tbaa !44
  store i64 %1, ptr %4, align 8, !tbaa !3
  %5 = load ptr, ptr %3, align 8
  %6 = getelementptr inbounds nuw %"struct.std::_Vector_base.4", ptr %5, i32 0, i32 0
  %7 = getelementptr inbounds nuw %"struct.std::_Vector_base<float, std::allocator<float>>::_Vector_impl_data", ptr %6, i32 0, i32 0
  %8 = load ptr, ptr %7, align 8, !tbaa !56
  %9 = load i64, ptr %4, align 8, !tbaa !3
  %10 = getelementptr inbounds nuw float, ptr %8, i64 %9
  ret ptr %10
}

; Function Attrs: mustprogress nounwind uwtable
define linkonce_odr hidden noundef nonnull align 4 dereferenceable(4) ptr @_ZNKSt6vectorIiSaIiEEixEm(ptr noundef nonnull align 8 dereferenceable(24) %0, i64 noundef %1) #3 comdat align 2 {
  %3 = alloca ptr, align 8
  %4 = alloca i64, align 8
  store ptr %0, ptr %3, align 8, !tbaa !92
  store i64 %1, ptr %4, align 8, !tbaa !3
  %5 = load ptr, ptr %3, align 8
  %6 = getelementptr inbounds nuw %"struct.std::_Vector_base.16", ptr %5, i32 0, i32 0
  %7 = getelementptr inbounds nuw %"struct.std::_Vector_base<int, std::allocator<int>>::_Vector_impl_data", ptr %6, i32 0, i32 0
  %8 = load ptr, ptr %7, align 8, !tbaa !94
  %9 = load i64, ptr %4, align 8, !tbaa !3
  %10 = getelementptr inbounds nuw i32, ptr %8, i64 %9
  ret ptr %10
}

; Function Attrs: mustprogress nounwind uwtable
define hidden noundef float @_ZNK19OpenColorIO_v2_5dev23GradingBSplineCurveImpl10KnotsCoefs9evalCurveEif(ptr noundef nonnull align 8 dereferenceable(104) %0, i32 noundef %1, float noundef %2) #3 align 2 {
  %4 = alloca float, align 4
  %5 = alloca ptr, align 8
  %6 = alloca i32, align 4
  %7 = alloca float, align 4
  %8 = alloca i32, align 4
  %9 = alloca i32, align 4
  %10 = alloca i32, align 4
  %11 = alloca i32, align 4
  %12 = alloca i32, align 4
  %13 = alloca float, align 4
  %14 = alloca float, align 4
  %15 = alloca float, align 4
  %16 = alloca float, align 4
  %17 = alloca float, align 4
  %18 = alloca float, align 4
  %19 = alloca float, align 4
  %20 = alloca float, align 4
  %21 = alloca float, align 4
  %22 = alloca float, align 4
  %23 = alloca float, align 4
  %24 = alloca i32, align 4
  %25 = alloca float, align 4
  %26 = alloca float, align 4
  %27 = alloca float, align 4
  %28 = alloca float, align 4
  %29 = alloca float, align 4
  store ptr %0, ptr %5, align 8, !tbaa !86
  store i32 %1, ptr %6, align 4, !tbaa !51
  store float %2, ptr %7, align 4, !tbaa !27
  %30 = load ptr, ptr %5, align 8
  call void @llvm.lifetime.start.p0(i64 4, ptr %8) #21
  %31 = getelementptr inbounds nuw %"struct.OpenColorIO_v2_5dev::GradingBSplineCurveImpl::KnotsCoefs", ptr %30, i32 0, i32 2
  %32 = load i32, ptr %6, align 4, !tbaa !51
  %33 = mul nsw i32 2, %32
  %34 = add nsw i32 %33, 1
  %35 = sext i32 %34 to i64
  %36 = call noundef nonnull align 4 dereferenceable(4) ptr @_ZNKSt6vectorIiSaIiEEixEm(ptr noundef nonnull align 8 dereferenceable(24) %31, i64 noundef %35) #21
  %37 = load i32, ptr %36, align 4, !tbaa !51
  %38 = sdiv i32 %37, 3
  store i32 %38, ptr %8, align 4, !tbaa !51
  %39 = load i32, ptr %8, align 4, !tbaa !51
  %40 = icmp eq i32 %39, 0
  br i1 %40, label %41, label %43

41:                                               ; preds = %3
  %42 = load float, ptr %7, align 4, !tbaa !27
  store float %42, ptr %4, align 4
  store i32 1, ptr %9, align 4
  br label %228

43:                                               ; preds = %3
  call void @llvm.lifetime.start.p0(i64 4, ptr %10) #21
  %44 = getelementptr inbounds nuw %"struct.OpenColorIO_v2_5dev::GradingBSplineCurveImpl::KnotsCoefs", ptr %30, i32 0, i32 2
  %45 = load i32, ptr %6, align 4, !tbaa !51
  %46 = mul nsw i32 2, %45
  %47 = sext i32 %46 to i64
  %48 = call noundef nonnull align 4 dereferenceable(4) ptr @_ZNKSt6vectorIiSaIiEEixEm(ptr noundef nonnull align 8 dereferenceable(24) %44, i64 noundef %47) #21
  %49 = load i32, ptr %48, align 4, !tbaa !51
  store i32 %49, ptr %10, align 4, !tbaa !51
  call void @llvm.lifetime.start.p0(i64 4, ptr %11) #21
  %50 = getelementptr inbounds nuw %"struct.OpenColorIO_v2_5dev::GradingBSplineCurveImpl::KnotsCoefs", ptr %30, i32 0, i32 1
  %51 = load i32, ptr %6, align 4, !tbaa !51
  %52 = mul nsw i32 2, %51
  %53 = add nsw i32 %52, 1
  %54 = sext i32 %53 to i64
  %55 = call noundef nonnull align 4 dereferenceable(4) ptr @_ZNKSt6vectorIiSaIiEEixEm(ptr noundef nonnull align 8 dereferenceable(24) %50, i64 noundef %54) #21
  %56 = load i32, ptr %55, align 4, !tbaa !51
  store i32 %56, ptr %11, align 4, !tbaa !51
  call void @llvm.lifetime.start.p0(i64 4, ptr %12) #21
  %57 = getelementptr inbounds nuw %"struct.OpenColorIO_v2_5dev::GradingBSplineCurveImpl::KnotsCoefs", ptr %30, i32 0, i32 1
  %58 = load i32, ptr %6, align 4, !tbaa !51
  %59 = mul nsw i32 2, %58
  %60 = sext i32 %59 to i64
  %61 = call noundef nonnull align 4 dereferenceable(4) ptr @_ZNKSt6vectorIiSaIiEEixEm(ptr noundef nonnull align 8 dereferenceable(24) %57, i64 noundef %60) #21
  %62 = load i32, ptr %61, align 4, !tbaa !51
  store i32 %62, ptr %12, align 4, !tbaa !51
  call void @llvm.lifetime.start.p0(i64 4, ptr %13) #21
  %63 = getelementptr inbounds nuw %"struct.OpenColorIO_v2_5dev::GradingBSplineCurveImpl::KnotsCoefs", ptr %30, i32 0, i32 4
  %64 = load i32, ptr %12, align 4, !tbaa !51
  %65 = sext i32 %64 to i64
  %66 = call noundef nonnull align 4 dereferenceable(4) ptr @_ZNKSt6vectorIfSaIfEEixEm(ptr noundef nonnull align 8 dereferenceable(24) %63, i64 noundef %65) #21
  %67 = load float, ptr %66, align 4, !tbaa !27
  store float %67, ptr %13, align 4, !tbaa !27
  call void @llvm.lifetime.start.p0(i64 4, ptr %14) #21
  %68 = getelementptr inbounds nuw %"struct.OpenColorIO_v2_5dev::GradingBSplineCurveImpl::KnotsCoefs", ptr %30, i32 0, i32 4
  %69 = load i32, ptr %12, align 4, !tbaa !51
  %70 = load i32, ptr %11, align 4, !tbaa !51
  %71 = add nsw i32 %69, %70
  %72 = sub nsw i32 %71, 1
  %73 = sext i32 %72 to i64
  %74 = call noundef nonnull align 4 dereferenceable(4) ptr @_ZNKSt6vectorIfSaIfEEixEm(ptr noundef nonnull align 8 dereferenceable(24) %68, i64 noundef %73) #21
  %75 = load float, ptr %74, align 4, !tbaa !27
  store float %75, ptr %14, align 4, !tbaa !27
  %76 = load float, ptr %7, align 4, !tbaa !27
  %77 = load float, ptr %13, align 4, !tbaa !27
  %78 = fcmp ole float %76, %77
  br i1 %78, label %79, label %101

79:                                               ; preds = %43
  call void @llvm.lifetime.start.p0(i64 4, ptr %15) #21
  %80 = getelementptr inbounds nuw %"struct.OpenColorIO_v2_5dev::GradingBSplineCurveImpl::KnotsCoefs", ptr %30, i32 0, i32 3
  %81 = load i32, ptr %10, align 4, !tbaa !51
  %82 = load i32, ptr %8, align 4, !tbaa !51
  %83 = add nsw i32 %81, %82
  %84 = sext i32 %83 to i64
  %85 = call noundef nonnull align 4 dereferenceable(4) ptr @_ZNKSt6vectorIfSaIfEEixEm(ptr noundef nonnull align 8 dereferenceable(24) %80, i64 noundef %84) #21
  %86 = load float, ptr %85, align 4, !tbaa !27
  store float %86, ptr %15, align 4, !tbaa !27
  call void @llvm.lifetime.start.p0(i64 4, ptr %16) #21
  %87 = getelementptr inbounds nuw %"struct.OpenColorIO_v2_5dev::GradingBSplineCurveImpl::KnotsCoefs", ptr %30, i32 0, i32 3
  %88 = load i32, ptr %10, align 4, !tbaa !51
  %89 = load i32, ptr %8, align 4, !tbaa !51
  %90 = mul nsw i32 %89, 2
  %91 = add nsw i32 %88, %90
  %92 = sext i32 %91 to i64
  %93 = call noundef nonnull align 4 dereferenceable(4) ptr @_ZNKSt6vectorIfSaIfEEixEm(ptr noundef nonnull align 8 dereferenceable(24) %87, i64 noundef %92) #21
  %94 = load float, ptr %93, align 4, !tbaa !27
  store float %94, ptr %16, align 4, !tbaa !27
  %95 = load float, ptr %7, align 4, !tbaa !27
  %96 = load float, ptr %13, align 4, !tbaa !27
  %97 = fsub float %95, %96
  %98 = load float, ptr %15, align 4, !tbaa !27
  %99 = load float, ptr %16, align 4, !tbaa !27
  %100 = call float @llvm.fmuladd.f32(float %97, float %98, float %99)
  store float %100, ptr %4, align 4
  store i32 1, ptr %9, align 4
  call void @llvm.lifetime.end.p0(i64 4, ptr %16) #21
  call void @llvm.lifetime.end.p0(i64 4, ptr %15) #21
  br label %227

101:                                              ; preds = %43
  %102 = load float, ptr %7, align 4, !tbaa !27
  %103 = load float, ptr %14, align 4, !tbaa !27
  %104 = fcmp oge float %102, %103
  br i1 %104, label %105, label %161

105:                                              ; preds = %101
  call void @llvm.lifetime.start.p0(i64 4, ptr %17) #21
  %106 = getelementptr inbounds nuw %"struct.OpenColorIO_v2_5dev::GradingBSplineCurveImpl::KnotsCoefs", ptr %30, i32 0, i32 3
  %107 = load i32, ptr %10, align 4, !tbaa !51
  %108 = load i32, ptr %8, align 4, !tbaa !51
  %109 = add nsw i32 %107, %108
  %110 = sub nsw i32 %109, 1
  %111 = sext i32 %110 to i64
  %112 = call noundef nonnull align 4 dereferenceable(4) ptr @_ZNKSt6vectorIfSaIfEEixEm(ptr noundef nonnull align 8 dereferenceable(24) %106, i64 noundef %111) #21
  %113 = load float, ptr %112, align 4, !tbaa !27
  store float %113, ptr %17, align 4, !tbaa !27
  call void @llvm.lifetime.start.p0(i64 4, ptr %18) #21
  %114 = getelementptr inbounds nuw %"struct.OpenColorIO_v2_5dev::GradingBSplineCurveImpl::KnotsCoefs", ptr %30, i32 0, i32 3
  %115 = load i32, ptr %10, align 4, !tbaa !51
  %116 = load i32, ptr %8, align 4, !tbaa !51
  %117 = mul nsw i32 %116, 2
  %118 = add nsw i32 %115, %117
  %119 = sub nsw i32 %118, 1
  %120 = sext i32 %119 to i64
  %121 = call noundef nonnull align 4 dereferenceable(4) ptr @_ZNKSt6vectorIfSaIfEEixEm(ptr noundef nonnull align 8 dereferenceable(24) %114, i64 noundef %120) #21
  %122 = load float, ptr %121, align 4, !tbaa !27
  store float %122, ptr %18, align 4, !tbaa !27
  call void @llvm.lifetime.start.p0(i64 4, ptr %19) #21
  %123 = getelementptr inbounds nuw %"struct.OpenColorIO_v2_5dev::GradingBSplineCurveImpl::KnotsCoefs", ptr %30, i32 0, i32 3
  %124 = load i32, ptr %10, align 4, !tbaa !51
  %125 = load i32, ptr %8, align 4, !tbaa !51
  %126 = mul nsw i32 %125, 3
  %127 = add nsw i32 %124, %126
  %128 = sub nsw i32 %127, 1
  %129 = sext i32 %128 to i64
  %130 = call noundef nonnull align 4 dereferenceable(4) ptr @_ZNKSt6vectorIfSaIfEEixEm(ptr noundef nonnull align 8 dereferenceable(24) %123, i64 noundef %129) #21
  %131 = load float, ptr %130, align 4, !tbaa !27
  store float %131, ptr %19, align 4, !tbaa !27
  call void @llvm.lifetime.start.p0(i64 4, ptr %20) #21
  %132 = getelementptr inbounds nuw %"struct.OpenColorIO_v2_5dev::GradingBSplineCurveImpl::KnotsCoefs", ptr %30, i32 0, i32 4
  %133 = load i32, ptr %12, align 4, !tbaa !51
  %134 = load i32, ptr %11, align 4, !tbaa !51
  %135 = add nsw i32 %133, %134
  %136 = sub nsw i32 %135, 2
  %137 = sext i32 %136 to i64
  %138 = call noundef nonnull align 4 dereferenceable(4) ptr @_ZNKSt6vectorIfSaIfEEixEm(ptr noundef nonnull align 8 dereferenceable(24) %132, i64 noundef %137) #21
  %139 = load float, ptr %138, align 4, !tbaa !27
  store float %139, ptr %20, align 4, !tbaa !27
  call void @llvm.lifetime.start.p0(i64 4, ptr %21) #21
  %140 = load float, ptr %14, align 4, !tbaa !27
  %141 = load float, ptr %20, align 4, !tbaa !27
  %142 = fsub float %140, %141
  store float %142, ptr %21, align 4, !tbaa !27
  call void @llvm.lifetime.start.p0(i64 4, ptr %22) #21
  %143 = load float, ptr %17, align 4, !tbaa !27
  %144 = fmul float 2.000000e+00, %143
  %145 = load float, ptr %21, align 4, !tbaa !27
  %146 = load float, ptr %18, align 4, !tbaa !27
  %147 = call float @llvm.fmuladd.f32(float %144, float %145, float %146)
  store float %147, ptr %22, align 4, !tbaa !27
  call void @llvm.lifetime.start.p0(i64 4, ptr %23) #21
  %148 = load float, ptr %17, align 4, !tbaa !27
  %149 = load float, ptr %21, align 4, !tbaa !27
  %150 = load float, ptr %18, align 4, !tbaa !27
  %151 = call float @llvm.fmuladd.f32(float %148, float %149, float %150)
  %152 = load float, ptr %21, align 4, !tbaa !27
  %153 = load float, ptr %19, align 4, !tbaa !27
  %154 = call float @llvm.fmuladd.f32(float %151, float %152, float %153)
  store float %154, ptr %23, align 4, !tbaa !27
  %155 = load float, ptr %7, align 4, !tbaa !27
  %156 = load float, ptr %14, align 4, !tbaa !27
  %157 = fsub float %155, %156
  %158 = load float, ptr %22, align 4, !tbaa !27
  %159 = load float, ptr %23, align 4, !tbaa !27
  %160 = call float @llvm.fmuladd.f32(float %157, float %158, float %159)
  store float %160, ptr %4, align 4
  store i32 1, ptr %9, align 4
  call void @llvm.lifetime.end.p0(i64 4, ptr %23) #21
  call void @llvm.lifetime.end.p0(i64 4, ptr %22) #21
  call void @llvm.lifetime.end.p0(i64 4, ptr %21) #21
  call void @llvm.lifetime.end.p0(i64 4, ptr %20) #21
  call void @llvm.lifetime.end.p0(i64 4, ptr %19) #21
  call void @llvm.lifetime.end.p0(i64 4, ptr %18) #21
  call void @llvm.lifetime.end.p0(i64 4, ptr %17) #21
  br label %227

161:                                              ; preds = %101
  call void @llvm.lifetime.start.p0(i64 4, ptr %24) #21
  store i32 0, ptr %24, align 4, !tbaa !51
  br label %162

162:                                              ; preds = %180, %161
  %163 = load i32, ptr %24, align 4, !tbaa !51
  %164 = load i32, ptr %11, align 4, !tbaa !51
  %165 = sub nsw i32 %164, 2
  %166 = icmp slt i32 %163, %165
  br i1 %166, label %167, label %183

167:                                              ; preds = %162
  %168 = load float, ptr %7, align 4, !tbaa !27
  %169 = getelementptr inbounds nuw %"struct.OpenColorIO_v2_5dev::GradingBSplineCurveImpl::KnotsCoefs", ptr %30, i32 0, i32 4
  %170 = load i32, ptr %12, align 4, !tbaa !51
  %171 = load i32, ptr %24, align 4, !tbaa !51
  %172 = add nsw i32 %170, %171
  %173 = add nsw i32 %172, 1
  %174 = sext i32 %173 to i64
  %175 = call noundef nonnull align 4 dereferenceable(4) ptr @_ZNKSt6vectorIfSaIfEEixEm(ptr noundef nonnull align 8 dereferenceable(24) %169, i64 noundef %174) #21
  %176 = load float, ptr %175, align 4, !tbaa !27
  %177 = fcmp olt float %168, %176
  br i1 %177, label %178, label %179

178:                                              ; preds = %167
  br label %183

179:                                              ; preds = %167
  br label %180

180:                                              ; preds = %179
  %181 = load i32, ptr %24, align 4, !tbaa !51
  %182 = add nsw i32 %181, 1
  store i32 %182, ptr %24, align 4, !tbaa !51
  br label %162, !llvm.loop !112

183:                                              ; preds = %178, %162
  call void @llvm.lifetime.start.p0(i64 4, ptr %25) #21
  %184 = getelementptr inbounds nuw %"struct.OpenColorIO_v2_5dev::GradingBSplineCurveImpl::KnotsCoefs", ptr %30, i32 0, i32 3
  %185 = load i32, ptr %10, align 4, !tbaa !51
  %186 = load i32, ptr %24, align 4, !tbaa !51
  %187 = add nsw i32 %185, %186
  %188 = sext i32 %187 to i64
  %189 = call noundef nonnull align 4 dereferenceable(4) ptr @_ZNKSt6vectorIfSaIfEEixEm(ptr noundef nonnull align 8 dereferenceable(24) %184, i64 noundef %188) #21
  %190 = load float, ptr %189, align 4, !tbaa !27
  store float %190, ptr %25, align 4, !tbaa !27
  call void @llvm.lifetime.start.p0(i64 4, ptr %26) #21
  %191 = getelementptr inbounds nuw %"struct.OpenColorIO_v2_5dev::GradingBSplineCurveImpl::KnotsCoefs", ptr %30, i32 0, i32 3
  %192 = load i32, ptr %10, align 4, !tbaa !51
  %193 = load i32, ptr %8, align 4, !tbaa !51
  %194 = add nsw i32 %192, %193
  %195 = load i32, ptr %24, align 4, !tbaa !51
  %196 = add nsw i32 %194, %195
  %197 = sext i32 %196 to i64
  %198 = call noundef nonnull align 4 dereferenceable(4) ptr @_ZNKSt6vectorIfSaIfEEixEm(ptr noundef nonnull align 8 dereferenceable(24) %191, i64 noundef %197) #21
  %199 = load float, ptr %198, align 4, !tbaa !27
  store float %199, ptr %26, align 4, !tbaa !27
  call void @llvm.lifetime.start.p0(i64 4, ptr %27) #21
  %200 = getelementptr inbounds nuw %"struct.OpenColorIO_v2_5dev::GradingBSplineCurveImpl::KnotsCoefs", ptr %30, i32 0, i32 3
  %201 = load i32, ptr %10, align 4, !tbaa !51
  %202 = load i32, ptr %8, align 4, !tbaa !51
  %203 = mul nsw i32 %202, 2
  %204 = add nsw i32 %201, %203
  %205 = load i32, ptr %24, align 4, !tbaa !51
  %206 = add nsw i32 %204, %205
  %207 = sext i32 %206 to i64
  %208 = call noundef nonnull align 4 dereferenceable(4) ptr @_ZNKSt6vectorIfSaIfEEixEm(ptr noundef nonnull align 8 dereferenceable(24) %200, i64 noundef %207) #21
  %209 = load float, ptr %208, align 4, !tbaa !27
  store float %209, ptr %27, align 4, !tbaa !27
  call void @llvm.lifetime.start.p0(i64 4, ptr %28) #21
  %210 = getelementptr inbounds nuw %"struct.OpenColorIO_v2_5dev::GradingBSplineCurveImpl::KnotsCoefs", ptr %30, i32 0, i32 4
  %211 = load i32, ptr %12, align 4, !tbaa !51
  %212 = load i32, ptr %24, align 4, !tbaa !51
  %213 = add nsw i32 %211, %212
  %214 = sext i32 %213 to i64
  %215 = call noundef nonnull align 4 dereferenceable(4) ptr @_ZNKSt6vectorIfSaIfEEixEm(ptr noundef nonnull align 8 dereferenceable(24) %210, i64 noundef %214) #21
  %216 = load float, ptr %215, align 4, !tbaa !27
  store float %216, ptr %28, align 4, !tbaa !27
  call void @llvm.lifetime.start.p0(i64 4, ptr %29) #21
  %217 = load float, ptr %7, align 4, !tbaa !27
  %218 = load float, ptr %28, align 4, !tbaa !27
  %219 = fsub float %217, %218
  store float %219, ptr %29, align 4, !tbaa !27
  %220 = load float, ptr %25, align 4, !tbaa !27
  %221 = load float, ptr %29, align 4, !tbaa !27
  %222 = load float, ptr %26, align 4, !tbaa !27
  %223 = call float @llvm.fmuladd.f32(float %220, float %221, float %222)
  %224 = load float, ptr %29, align 4, !tbaa !27
  %225 = load float, ptr %27, align 4, !tbaa !27
  %226 = call float @llvm.fmuladd.f32(float %223, float %224, float %225)
  store float %226, ptr %4, align 4
  store i32 1, ptr %9, align 4
  call void @llvm.lifetime.end.p0(i64 4, ptr %29) #21
  call void @llvm.lifetime.end.p0(i64 4, ptr %28) #21
  call void @llvm.lifetime.end.p0(i64 4, ptr %27) #21
  call void @llvm.lifetime.end.p0(i64 4, ptr %26) #21
  call void @llvm.lifetime.end.p0(i64 4, ptr %25) #21
  call void @llvm.lifetime.end.p0(i64 4, ptr %24) #21
  br label %227

227:                                              ; preds = %183, %105, %79
  call void @llvm.lifetime.end.p0(i64 4, ptr %14) #21
  call void @llvm.lifetime.end.p0(i64 4, ptr %13) #21
  call void @llvm.lifetime.end.p0(i64 4, ptr %12) #21
  call void @llvm.lifetime.end.p0(i64 4, ptr %11) #21
  call void @llvm.lifetime.end.p0(i64 4, ptr %10) #21
  br label %228

228:                                              ; preds = %227, %41
  call void @llvm.lifetime.end.p0(i64 4, ptr %8) #21
  %229 = load float, ptr %4, align 4
  ret float %229
}