; Function Attrs: mustprogress nofree norecurse nosync nounwind willreturn memory(read, inaccessiblemem: none) uwtable
define hidden noundef float @_ZNK19OpenColorIO_v2_5dev23GradingBSplineCurveImpl10KnotsCoefs9evalCurveEif(ptr noundef nonnull readonly align 8 captures(none) dereferenceable(104) %0, i32 noundef %1, float noundef %2) local_unnamed_addr #8 align 2 {
  %4 = getelementptr inbounds nuw i8, ptr %0, i64 32
  %5 = shl nsw i32 %1, 1
  %6 = or disjoint i32 %5, 1
  %7 = sext i32 %6 to i64
  %8 = load ptr, ptr %4, align 8, !tbaa !69
  %9 = getelementptr inbounds nuw i32, ptr %8, i64 %7
  %10 = load i32, ptr %9, align 4, !tbaa !21
  %11 = sdiv i32 %10, 3
  %.off = add i32 %10, 2
  %12 = icmp ult i32 %.off, 5
  br i1 %12, label %109, label %13

13:                                               ; preds = %3
  %14 = sext i32 %5 to i64
  %15 = getelementptr inbounds nuw i32, ptr %8, i64 %14
  %16 = load i32, ptr %15, align 4, !tbaa !21
  %17 = getelementptr inbounds nuw i8, ptr %0, i64 8
  %18 = load ptr, ptr %17, align 8, !tbaa !69
  %19 = getelementptr inbounds nuw i32, ptr %18, i64 %7
  %20 = load i32, ptr %19, align 4, !tbaa !21
  %21 = getelementptr inbounds nuw i32, ptr %18, i64 %14
  %22 = load i32, ptr %21, align 4, !tbaa !21
  %23 = getelementptr inbounds nuw i8, ptr %0, i64 80
  %24 = sext i32 %22 to i64
  %25 = load ptr, ptr %23, align 8, !tbaa !37
  %26 = getelementptr inbounds nuw float, ptr %25, i64 %24
  %27 = load float, ptr %26, align 4, !tbaa !41
  %28 = add nsw i32 %22, %20
  %29 = sext i32 %28 to i64
  %30 = getelementptr float, ptr %25, i64 %29
  %31 = getelementptr i8, ptr %30, i64 -4
  %32 = load float, ptr %31, align 4, !tbaa !41
  %33 = fcmp ugt float %2, %27
  br i1 %33, label %48, label %34

34:                                               ; preds = %13
  %35 = getelementptr inbounds nuw i8, ptr %0, i64 56
  %36 = add nsw i32 %16, %11
  %37 = sext i32 %36 to i64
  %38 = load ptr, ptr %35, align 8, !tbaa !37
  %39 = getelementptr inbounds nuw float, ptr %38, i64 %37
  %40 = load float, ptr %39, align 4, !tbaa !41
  %41 = shl nsw i32 %11, 1
  %42 = add nsw i32 %16, %41
  %43 = sext i32 %42 to i64
  %44 = getelementptr inbounds nuw float, ptr %38, i64 %43
  %45 = load float, ptr %44, align 4, !tbaa !41
  %46 = fsub float %2, %27
  %47 = tail call float @llvm.fmuladd.f32(float %46, float %40, float %45)
  br label %109

48:                                               ; preds = %13
  %49 = fcmp ult float %2, %32
  br i1 %49, label %.preheader, label %52

.preheader:                                       ; preds = %48
  %50 = add i32 %20, -2
  %51 = icmp sgt i32 %20, 2
  br i1 %51, label %.lr.ph.preheader, label %._crit_edge

.lr.ph.preheader:                                 ; preds = %.preheader
  %invariant.gep = getelementptr i8, ptr %25, i64 4
  %wide.trip.count = zext nneg i32 %50 to i64
  %invariant.gep79 = getelementptr float, ptr %invariant.gep, i64 %24
  br label %.lr.ph

52:                                               ; preds = %48
  %53 = getelementptr inbounds nuw i8, ptr %0, i64 56
  %54 = add nsw i32 %16, %11
  %55 = load ptr, ptr %53, align 8, !tbaa !37
  %56 = sext i32 %54 to i64
  %57 = getelementptr float, ptr %55, i64 %56
  %58 = getelementptr i8, ptr %57, i64 -4
  %59 = load float, ptr %58, align 4, !tbaa !41
  %60 = shl nsw i32 %11, 1
  %61 = add nsw i32 %16, %60
  %62 = sext i32 %61 to i64
  %63 = getelementptr float, ptr %55, i64 %62
  %64 = getelementptr i8, ptr %63, i64 -4
  %65 = load float, ptr %64, align 4, !tbaa !41
  %66 = mul nsw i32 %11, 3
  %67 = add nsw i32 %16, %66
  %68 = sext i32 %67 to i64
  %69 = getelementptr float, ptr %55, i64 %68
  %70 = getelementptr i8, ptr %69, i64 -4
  %71 = load float, ptr %70, align 4, !tbaa !41
  %72 = getelementptr i8, ptr %30, i64 -8
  %73 = load float, ptr %72, align 4, !tbaa !41
  %74 = fsub float %32, %73
  %75 = fmul float %59, 2.000000e+00
  %76 = tail call float @llvm.fmuladd.f32(float %75, float %74, float %65)
  %77 = tail call float @llvm.fmuladd.f32(float %59, float %74, float %65)
  %78 = tail call float @llvm.fmuladd.f32(float %77, float %74, float %71)
  %79 = fsub float %2, %32
  %80 = tail call float @llvm.fmuladd.f32(float %79, float %76, float %78)
  br label %109

.lr.ph:                                           ; preds = %.lr.ph.preheader, %83
  %indvars.iv = phi i64 [ 0, %.lr.ph.preheader ], [ %indvars.iv.next, %83 ]
  %gep80 = getelementptr float, ptr %invariant.gep79, i64 %indvars.iv
  %81 = load float, ptr %gep80, align 4, !tbaa !41
  %82 = fcmp olt float %2, %81
  br i1 %82, label %._crit_edge.loopexit.split.loop.exit, label %83

83:                                               ; preds = %.lr.ph
  %indvars.iv.next = add nuw nsw i64 %indvars.iv, 1
  %exitcond.not = icmp eq i64 %indvars.iv.next, %wide.trip.count
  br i1 %exitcond.not, label %._crit_edge, label %.lr.ph, !llvm.loop !79

._crit_edge.loopexit.split.loop.exit:             ; preds = %.lr.ph
  %84 = trunc nuw nsw i64 %indvars.iv to i32
  br label %._crit_edge

._crit_edge:                                      ; preds = %83, %._crit_edge.loopexit.split.loop.exit, %.preheader
  %.067.lcssa = phi i32 [ 0, %.preheader ], [ %84, %._crit_edge.loopexit.split.loop.exit ], [ %50, %83 ]
  %85 = getelementptr inbounds nuw i8, ptr %0, i64 56
  %86 = add nsw i32 %.067.lcssa, %16
  %87 = sext i32 %86 to i64
  %88 = load ptr, ptr %85, align 8, !tbaa !37
  %89 = getelementptr inbounds nuw float, ptr %88, i64 %87
  %90 = load float, ptr %89, align 4, !tbaa !41
  %91 = add nsw i32 %16, %11
  %92 = add nsw i32 %91, %.067.lcssa
  %93 = sext i32 %92 to i64
  %94 = getelementptr inbounds nuw float, ptr %88, i64 %93
  %95 = load float, ptr %94, align 4, !tbaa !41
  %96 = shl nsw i32 %11, 1
  %97 = add nsw i32 %16, %96
  %98 = add nsw i32 %97, %.067.lcssa
  %99 = sext i32 %98 to i64
  %100 = getelementptr inbounds nuw float, ptr %88, i64 %99
  %101 = load float, ptr %100, align 4, !tbaa !41
  %102 = add nsw i32 %.067.lcssa, %22
  %103 = sext i32 %102 to i64
  %104 = getelementptr inbounds nuw float, ptr %25, i64 %103
  %105 = load float, ptr %104, align 4, !tbaa !41
  %106 = fsub float %2, %105
  %107 = tail call float @llvm.fmuladd.f32(float %90, float %106, float %95)
  %108 = tail call float @llvm.fmuladd.f32(float %107, float %106, float %101)
  br label %109

109:                                              ; preds = %34, %52, %._crit_edge, %3
  %.0 = phi float [ %2, %3 ], [ %47, %34 ], [ %80, %52 ], [ %108, %._crit_edge ]
  ret float %.0
}